; Function Attrs: nounwind sspstrong uwtable
define internal range(i64 0, 21) i64 @rb_io_buffer_locked_p(i64 noundef %0) #0 {
  %2 = tail call ptr @rb_check_typeddata(i64 noundef %0, ptr noundef nonnull @rb_io_buffer_type) #25
  %3 = getelementptr inbounds nuw i8, ptr %2, i64 16
  %4 = load i32, ptr %3, align 8, !tbaa !15
  %5 = and i32 %4, 32
  %.not = icmp eq i32 %5, 0
  %6 = select i1 %.not, i64 0, i64 20
  ret i64 %6
}